; Function Attrs: mustprogress uwtable
define hidden void @_ZNK19OpenColorIO_v2_4dev10FileFormat7getNameB5cxx11Ev(ptr noalias sret(%"class.std::__cxx11::basic_string") align 8 %agg.result, ptr noundef nonnull align 8 dereferenceable(8) %this) local_unnamed_addr #3 align 2 personality ptr @__gxx_personality_v0 {
entry:
  %infoVec = alloca %"class.std::vector.56", align 8
  %ref.tmp = alloca %"class.std::allocator", align 1
  call void @llvm.memset.p0.i64(ptr noundef nonnull align 8 dereferenceable(24) %infoVec, i8 0, i64 24, i1 false)
  %vtable = load ptr, ptr %this, align 8
  %vfn = getelementptr inbounds i8, ptr %vtable, i64 16
  %0 = load ptr, ptr %vfn, align 8
  invoke void %0(ptr noundef nonnull align 8 dereferenceable(8) %this, ptr noundef nonnull align 8 dereferenceable(24) %infoVec)
          to label %invoke.cont unwind label %lpad

invoke.cont:                                      ; preds = %entry
  %_M_finish.i = getelementptr inbounds i8, ptr %infoVec, i64 8
  %1 = load ptr, ptr %_M_finish.i, align 8
  %2 = load ptr, ptr %infoVec, align 8
  %cmp.not = icmp eq ptr %1, %2
  br i1 %cmp.not, label %if.end, label %if.then

if.then:                                          ; preds = %invoke.cont
  invoke void @_ZNSt7__cxx1112basic_stringIcSt11char_traitsIcESaIcEEC1ERKS4_(ptr noundef nonnull align 8 dereferenceable(32) %agg.result, ptr noundef nonnull align 8 dereferenceable(32) %2)
          to label %cleanup unwind label %lpad

lpad:                                             ; preds = %if.then, %entry
  %3 = landingpad { ptr, i32 }
          cleanup
  br label %ehcleanup

if.end:                                           ; preds = %invoke.cont
  call void @_ZNSaIcEC1Ev(ptr noundef nonnull align 1 dereferenceable(1) %ref.tmp) #28
  invoke void @_ZNSt7__cxx1112basic_stringIcSt11char_traitsIcESaIcEEC1EPKcRKS3_(ptr noundef nonnull align 8 dereferenceable(32) %agg.result, ptr noundef nonnull @.str.16, ptr noundef nonnull align 1 dereferenceable(1) %ref.tmp)
          to label %invoke.cont5 unwind label %lpad4

invoke.cont5:                                     ; preds = %if.end
  call void @_ZNSaIcED1Ev(ptr noundef nonnull align 1 dereferenceable(1) %ref.tmp) #28
  br label %cleanup

lpad4:                                            ; preds = %if.end
  %4 = landingpad { ptr, i32 }
          cleanup
  call void @_ZNSaIcED1Ev(ptr noundef nonnull align 1 dereferenceable(1) %ref.tmp) #28
  br label %ehcleanup

cleanup:                                          ; preds = %if.then, %invoke.cont5
  %5 = load ptr, ptr %infoVec, align 8
  %6 = load ptr, ptr %_M_finish.i, align 8
  %cmp.not3.i.i.i.i = icmp eq ptr %5, %6
  br i1 %cmp.not3.i.i.i.i, label %invoke.cont.i, label %for.body.i.i.i.i

for.body.i.i.i.i:                                 ; preds = %cleanup, %for.body.i.i.i.i
  %__first.addr.04.i.i.i.i = phi ptr [ %incdec.ptr.i.i.i.i, %for.body.i.i.i.i ], [ %5, %cleanup ]
  %extension.i.i.i.i.i.i = getelementptr inbounds i8, ptr %__first.addr.04.i.i.i.i, i64 32
  call void @_ZNSt7__cxx1112basic_stringIcSt11char_traitsIcESaIcEED1Ev(ptr noundef nonnull align 8 dereferenceable(32) %extension.i.i.i.i.i.i) #28
  call void @_ZNSt7__cxx1112basic_stringIcSt11char_traitsIcESaIcEED1Ev(ptr noundef nonnull align 8 dereferenceable(32) %__first.addr.04.i.i.i.i) #28
  %incdec.ptr.i.i.i.i = getelementptr inbounds i8, ptr %__first.addr.04.i.i.i.i, i64 72
  %cmp.not.i.i.i.i = icmp eq ptr %incdec.ptr.i.i.i.i, %6
  br i1 %cmp.not.i.i.i.i, label %invoke.contthread-pre-split.i, label %for.body.i.i.i.i, !llvm.loop !10

invoke.contthread-pre-split.i:                    ; preds = %for.body.i.i.i.i
  %.pr.i = load ptr, ptr %infoVec, align 8
  br label %invoke.cont.i

invoke.cont.i:                                    ; preds = %invoke.contthread-pre-split.i, %cleanup
  %7 = phi ptr [ %.pr.i, %invoke.contthread-pre-split.i ], [ %5, %cleanup ]
  %tobool.not.i.i.i = icmp eq ptr %7, null
  br i1 %tobool.not.i.i.i, label %_ZNSt6vectorIN19OpenColorIO_v2_4dev10FormatInfoESaIS1_EED2Ev.exit, label %if.then.i.i.i

if.then.i.i.i:                                    ; preds = %invoke.cont.i
  call void @_ZdlPv(ptr noundef nonnull %7) #31
  br label %_ZNSt6vectorIN19OpenColorIO_v2_4dev10FormatInfoESaIS1_EED2Ev.exit

_ZNSt6vectorIN19OpenColorIO_v2_4dev10FormatInfoESaIS1_EED2Ev.exit: ; preds = %invoke.cont.i, %if.then.i.i.i
  ret void

ehcleanup:                                        ; preds = %lpad4, %lpad
  %.pn = phi { ptr, i32 } [ %3, %lpad ], [ %4, %lpad4 ]
  call void @_ZNSt6vectorIN19OpenColorIO_v2_4dev10FormatInfoESaIS1_EED2Ev(ptr noundef nonnull align 8 dereferenceable(24) %infoVec) #28
  resume { ptr, i32 } %.pn
}